target datalayout = "e-m:e-p270:32:32-p271:32:32-p272:64:64-i64:64-i128:128-f80:128-n8:16:32:64-S128"
target triple = "x86_64-pc-linux-gnu"

%struct.rb_data_type_struct = type { ptr, %struct.anon, ptr, ptr, i64 }
%struct.anon = type { ptr, ptr, ptr, ptr, [1 x ptr] }

@ossl_cipher_type = internal constant %struct.rb_data_type_struct { ptr @.str.30, %struct.anon { ptr null, ptr @ossl_cipher_free, ptr null, ptr null, [1 x ptr] zeroinitializer }, ptr null, ptr null, i64 33 }, align 8
@rb_eRuntimeError = external global i64, align 8
@.str = private unnamed_addr constant [24 x i8] c"Cipher not initialized!\00", align 1

; Function Attrs: nounwind sspstrong uwtable
define internal i64 @ossl_cipher_is_authenticated(i64 noundef %0) #0 {
  %2 = alloca i64, align 8
  %3 = alloca ptr, align 8
  store i64 %0, ptr %2, align 8, !tbaa !6
  call void @llvm.lifetime.start.p0(i64 8, ptr %3) #20
  br label %4

4:                                                ; preds = %1
  br label %5

5:                                                ; preds = %4
  %6 = load i64, ptr %2, align 8, !tbaa !6
  %7 = call ptr @rb_check_typeddata(i64 noundef %6, ptr noundef @ossl_cipher_type)
  store ptr %7, ptr %3, align 8, !tbaa !10
  br label %8

8:                                                ; preds = %5
  br label %9

9:                                                ; preds = %8
  %10 = load ptr, ptr %3, align 8, !tbaa !10
  %11 = icmp ne ptr %10, null
  br i1 %11, label %14, label %12

12:                                               ; preds = %9
  %13 = load i64, ptr @rb_eRuntimeError, align 8, !tbaa !6
  call void (i64, ptr, ...) @ossl_raise(i64 noundef %13, ptr noundef @.str) #21
  unreachable

14:                                               ; preds = %9
  br label %15

15:                                               ; preds = %14
  br label %16

16:                                               ; preds = %15
  %17 = load ptr, ptr %3, align 8, !tbaa !10
  %18 = call ptr @EVP_CIPHER_CTX_cipher(ptr noundef %17)
  %19 = call i64 @EVP_CIPHER_get_flags(ptr noundef %18)
  %20 = and i64 %19, 2097152
  %21 = icmp ne i64 %20, 0
  %22 = select i1 %21, i64 20, i64 0
  call void @llvm.lifetime.end.p0(i64 8, ptr %3) #20
  ret i64 %22
}