; Function Attrs: nounwind sspstrong uwtable
define internal range(i64 0, 21) i64 @ossl_cipher_is_authenticated(i64 noundef %0) #0 {
  %2 = tail call ptr @rb_check_typeddata(i64 noundef %0, ptr noundef nonnull @ossl_cipher_type) #11
  %.not = icmp eq ptr %2, null
  br i1 %.not, label %3, label %5

3:                                                ; preds = %1
  %4 = load i64, ptr @rb_eRuntimeError, align 8, !tbaa !6
  tail call void (i64, ptr, ...) @ossl_raise(i64 noundef %4, ptr noundef nonnull @.str) #12
  unreachable

5:                                                ; preds = %1
  %6 = tail call ptr @EVP_CIPHER_CTX_cipher(ptr noundef nonnull %2) #11
  %7 = tail call i64 @EVP_CIPHER_get_flags(ptr noundef %6) #11
  %8 = and i64 %7, 2097152
  %.not2 = icmp eq i64 %8, 0
  %9 = select i1 %.not2, i64 0, i64 20
  ret i64 %9
}